---
triple:          'arm64-apple-darwin'
binary-path:     hw10_p3
relocations:
  - { offsetInCU: 0x2E5F, offset: 0x2E5F, size: 0x8, addend: 0x0, symName: __ZNSt3__124__put_character_sequenceB7v160006IcNS_11char_traitsIcEEEERNS_13basic_ostreamIT_T0_EES7_PKS4_m, symObjAddr: 0x3984, symBinAddr: 0x10000626C, symSize: 0x1F4 }
  - { offsetInCU: 0x4C95, offset: 0x4C95, size: 0x8, addend: 0x0, symName: __ZNSt3__1lsB7v160006INS_11char_traitsIcEEEERNS_13basic_ostreamIcT_EES6_PKc, symObjAddr: 0x6E8, symBinAddr: 0x100002FD0, symSize: 0x48 }
  - { offsetInCU: 0x4CDB, offset: 0x4CDB, size: 0x8, addend: 0x0, symName: __ZNSt3__1lsB7v160006IcNS_11char_traitsIcEENS_9allocatorIcEEEERNS_13basic_ostreamIT_T0_EES9_RKNS_12basic_stringIS6_S7_T1_EE, symObjAddr: 0x730, symBinAddr: 0x100003018, symSize: 0x4C }
  - { offsetInCU: 0x4D33, offset: 0x4D33, size: 0x8, addend: 0x0, symName: __ZNSt3__1lsB7v160006INS_11char_traitsIcEEEERNS_13basic_ostreamIcT_EES6_c, symObjAddr: 0x77C, symBinAddr: 0x100003064, symSize: 0x34 }
  - { offsetInCU: 0x4D79, offset: 0x4D79, size: 0x8, addend: 0x0, symName: __ZNSt3__14endlB7v160006IcNS_11char_traitsIcEEEERNS_13basic_ostreamIT_T0_EES7_, symObjAddr: 0xD84, symBinAddr: 0x10000366C, symSize: 0x58 }
  - { offsetInCU: 0x4DB9, offset: 0x4DB9, size: 0x8, addend: 0x0, symName: __ZNSt3__1eqB7v160006INS_9allocatorIcEEEEbRKNS_12basic_stringIcNS_11char_traitsIcEET_EES9_, symObjAddr: 0x220C, symBinAddr: 0x100004AF4, symSize: 0x148 }
  - { offsetInCU: 0x4E2C, offset: 0x4E2C, size: 0x8, addend: 0x0, symName: __ZNSt3__1rsB7v160006IcNS_11char_traitsIcEEEERNS_13basic_istreamIT_T0_EES7_RS4_, symObjAddr: 0x2E00, symBinAddr: 0x1000056E8, symSize: 0x190 }
  - { offsetInCU: 0x4EAE, offset: 0x4EAE, size: 0x8, addend: 0x0, symName: __ZNSt3__1rsB7v160006IcNS_11char_traitsIcEENS_9allocatorIcEEEERNS_13basic_istreamIT_T0_EES9_RNS_12basic_stringIS6_S7_T1_EE, symObjAddr: 0x2F90, symBinAddr: 0x100005878, symSize: 0x310 }
  - { offsetInCU: 0x4F7B, offset: 0x4F7B, size: 0x8, addend: 0x0, symName: __ZNSt3__1rsB7v160006IcNS_11char_traitsIcEEEERNS_13basic_istreamIT_T0_EES7_PS4_, symObjAddr: 0x32A0, symBinAddr: 0x100005B88, symSize: 0x74 }
  - { offsetInCU: 0x4FD9, offset: 0x4FD9, size: 0x8, addend: 0x0, symName: __ZNSt3__1eqB7v160006IcNS_11char_traitsIcEENS_9allocatorIcEEEEbRKNS_12basic_stringIT_T0_T1_EEPKS6_, symObjAddr: 0x3314, symBinAddr: 0x100005BFC, symSize: 0xC0 }
  - { offsetInCU: 0x5040, offset: 0x5040, size: 0x8, addend: 0x0, symName: __ZNSt3__119__debug_db_insert_cB7v160006INS_12basic_stringIcNS_11char_traitsIcEENS_9allocatorIcEEEEEEvPT_, symObjAddr: 0x3454, symBinAddr: 0x100005D3C, symSize: 0x10 }
  - { offsetInCU: 0x5071, offset: 0x5071, size: 0x8, addend: 0x0, symName: __ZNSt3__130__libcpp_is_constant_evaluatedB7v160006Ev, symObjAddr: 0x35F4, symBinAddr: 0x100005EDC, symSize: 0xC }
  - { offsetInCU: 0x508E, offset: 0x508E, size: 0x8, addend: 0x0, symName: __ZNSt3__117__libcpp_allocateB7v160006Emm, symObjAddr: 0x38EC, symBinAddr: 0x1000061D4, symSize: 0x28 }
  - { offsetInCU: 0x50CB, offset: 0x50CB, size: 0x8, addend: 0x0, symName: __ZNSt3__121__libcpp_operator_newB7v160006IJmEEEPvDpT_, symObjAddr: 0x3928, symBinAddr: 0x100006210, symSize: 0x24 }
  - { offsetInCU: 0x5104, offset: 0x5104, size: 0x8, addend: 0x0, symName: __ZNSt3__116__pad_and_outputB7v160006IcNS_11char_traitsIcEEEENS_19ostreambuf_iteratorIT_T0_EES6_PKS4_S8_S8_RNS_8ios_baseES4_, symObjAddr: 0x3C10, symBinAddr: 0x1000064F8, symSize: 0x248 }
  - { offsetInCU: 0x51D3, offset: 0x51D3, size: 0x8, addend: 0x0, symName: __ZNSt3__19use_facetB7v160006INS_5ctypeIcEEEERKT_RKNS_6localeE, symObjAddr: 0x41C8, symBinAddr: 0x100006AB0, symSize: 0x2C }
  - { offsetInCU: 0x55B3, offset: 0x55B3, size: 0x8, addend: 0x0, symName: __ZNSt3__112__to_addressB7v160006IKcEEPT_S3_, symObjAddr: 0x4260, symBinAddr: 0x100006B48, symSize: 0x14 }
  - { offsetInCU: 0x561B, offset: 0x561B, size: 0x8, addend: 0x0, symName: __ZNSt3__118__constexpr_strlenB7v160006EPKc, symObjAddr: 0x447C, symBinAddr: 0x100006D64, symSize: 0x24 }
  - { offsetInCU: 0x5647, offset: 0x5647, size: 0x8, addend: 0x0, symName: __ZNSt3__118__constexpr_memcmpB7v160006IcEEiPKT_S3_m, symObjAddr: 0x4520, symBinAddr: 0x100006E08, symSize: 0x34 }
  - { offsetInCU: 0x5E23, offset: 0x5E23, size: 0x8, addend: 0x0, symName: __ZNSt3__125__debug_db_invalidate_allB7v160006INS_12basic_stringIcNS_11char_traitsIcEENS_9allocatorIcEEEEEEvPT_, symObjAddr: 0x48FC, symBinAddr: 0x1000071E4, symSize: 0x10 }
  - { offsetInCU: 0x6089, offset: 0x6089, size: 0x8, addend: 0x0, symName: __ZNSt3__116__input_c_stringB7v160006IcNS_11char_traitsIcEEEERNS_13basic_istreamIT_T0_EES7_PS4_m, symObjAddr: 0x4AB0, symBinAddr: 0x100007398, symSize: 0x2C4 }
  - { offsetInCU: 0x614E, offset: 0x614E, size: 0x8, addend: 0x0, symName: __ZSt28__throw_bad_array_new_lengthB7v160006v, symObjAddr: 0x38B8, symBinAddr: 0x1000061A0, symSize: 0x34 }
  - { offsetInCU: 0x89B0, offset: 0x89B0, size: 0x8, addend: 0x0, symName: __Z21formatWithLeadingZeroi, symObjAddr: 0x0, symBinAddr: 0x1000028E8, symSize: 0xA4 }
  - { offsetInCU: 0x89DC, offset: 0x89DC, size: 0x8, addend: 0x0, symName: __Z9parseDatePKc, symObjAddr: 0xB0, symBinAddr: 0x100002998, symSize: 0xA4 }
  - { offsetInCU: 0x8A17, offset: 0x8A17, size: 0x8, addend: 0x0, symName: __ZN6AnimalC2EiRK4DateRKNSt3__112basic_stringIcNS3_11char_traitsIcEENS3_9allocatorIcEEEE, symObjAddr: 0x154, symBinAddr: 0x100002A3C, symSize: 0x6C }
  - { offsetInCU: 0x8A6C, offset: 0x8A6C, size: 0x8, addend: 0x0, symName: __ZN6AnimalC1EiRK4DateRKNSt3__112basic_stringIcNS3_11char_traitsIcEENS3_9allocatorIcEEEE, symObjAddr: 0x1C0, symBinAddr: 0x100002AA8, symSize: 0x44 }
  - { offsetInCU: 0x8AC1, offset: 0x8AC1, size: 0x8, addend: 0x0, symName: __ZN6AnimalC2Ei4Date, symObjAddr: 0x204, symBinAddr: 0x100002AEC, symSize: 0xA8 }
  - { offsetInCU: 0x8B08, offset: 0x8B08, size: 0x8, addend: 0x0, symName: __ZNSt3__112basic_stringIcNS_11char_traitsIcEENS_9allocatorIcEEEC1B7v160006Ev, symObjAddr: 0x2AC, symBinAddr: 0x100002B94, symSize: 0x2C }
  - { offsetInCU: 0x8B32, offset: 0x8B32, size: 0x8, addend: 0x0, symName: __ZN6AnimalC1Ei4Date, symObjAddr: 0x2D8, symBinAddr: 0x100002BC0, symSize: 0x98 }
  - { offsetInCU: 0x8B79, offset: 0x8B79, size: 0x8, addend: 0x0, symName: __ZN6AnimalD2Ev, symObjAddr: 0x370, symBinAddr: 0x100002C58, symSize: 0x40 }
  - { offsetInCU: 0x8BA4, offset: 0x8BA4, size: 0x8, addend: 0x0, symName: __ZN6AnimalD1Ev, symObjAddr: 0x3B0, symBinAddr: 0x100002C98, symSize: 0x2C }
  - { offsetInCU: 0x8BCF, offset: 0x8BCF, size: 0x8, addend: 0x0, symName: __ZN6AnimalD0Ev, symObjAddr: 0x3DC, symBinAddr: 0x100002CC4, symSize: 0x58 }
  - { offsetInCU: 0x8BFA, offset: 0x8BFA, size: 0x8, addend: 0x0, symName: __ZNK6Animal6getAgeEv, symObjAddr: 0x434, symBinAddr: 0x100002D1C, symSize: 0x84 }
  - { offsetInCU: 0x8C2F, offset: 0x8C2F, size: 0x8, addend: 0x0, symName: __ZNK6Animal5getIdEv, symObjAddr: 0x4B8, symBinAddr: 0x100002DA0, symSize: 0x18 }
  - { offsetInCU: 0x8C56, offset: 0x8C56, size: 0x8, addend: 0x0, symName: __ZNK6Animal7getNameEv, symObjAddr: 0x4D0, symBinAddr: 0x100002DB8, symSize: 0x3C }
  - { offsetInCU: 0x8C7D, offset: 0x8C7D, size: 0x8, addend: 0x0, symName: __ZN6Animal7setNameERKNSt3__112basic_stringIcNS0_11char_traitsIcEENS0_9allocatorIcEEEE, symObjAddr: 0x50C, symBinAddr: 0x100002DF4, symSize: 0x30 }
  - { offsetInCU: 0x8CB2, offset: 0x8CB2, size: 0x8, addend: 0x0, symName: __ZNK6Animal5printEv, symObjAddr: 0x53C, symBinAddr: 0x100002E24, symSize: 0x1AC }
  - { offsetInCU: 0x8CD9, offset: 0x8CD9, size: 0x8, addend: 0x0, symName: __ZNK6Animal12isShowAnimalEv, symObjAddr: 0x7B0, symBinAddr: 0x100003098, symSize: 0x18 }
  - { offsetInCU: 0x8CFF, offset: 0x8CFF, size: 0x8, addend: 0x0, symName: __Z9parseTimePKc, symObjAddr: 0x7C8, symBinAddr: 0x1000030B0, symSize: 0xA4 }
  - { offsetInCU: 0x8D3A, offset: 0x8D3A, size: 0x8, addend: 0x0, symName: __ZN13DisplayAnimalC2EiRK4DateRKNSt3__112basic_stringIcNS3_11char_traitsIcEENS3_9allocatorIcEEEE, symObjAddr: 0x86C, symBinAddr: 0x100003154, symSize: 0x60 }
  - { offsetInCU: 0x8D8F, offset: 0x8D8F, size: 0x8, addend: 0x0, symName: __ZN13DisplayAnimalC1EiRK4DateRKNSt3__112basic_stringIcNS3_11char_traitsIcEENS3_9allocatorIcEEEE, symObjAddr: 0x8CC, symBinAddr: 0x1000031B4, symSize: 0x44 }
  - { offsetInCU: 0x8DE4, offset: 0x8DE4, size: 0x8, addend: 0x0, symName: __ZN13DisplayAnimalD2Ev, symObjAddr: 0x910, symBinAddr: 0x1000031F8, symSize: 0x2C }
  - { offsetInCU: 0x8E0F, offset: 0x8E0F, size: 0x8, addend: 0x0, symName: __ZN13DisplayAnimalD1Ev, symObjAddr: 0x93C, symBinAddr: 0x100003224, symSize: 0x2C }
  - { offsetInCU: 0x8E3A, offset: 0x8E3A, size: 0x8, addend: 0x0, symName: __ZN13DisplayAnimalD0Ev, symObjAddr: 0x968, symBinAddr: 0x100003250, symSize: 0x58 }
  - { offsetInCU: 0x8E65, offset: 0x8E65, size: 0x8, addend: 0x0, symName: __ZN13DisplayAnimal14setDisplayTimeERK4TimeS2_, symObjAddr: 0x9C0, symBinAddr: 0x1000032A8, symSize: 0x4C }
  - { offsetInCU: 0x8EA8, offset: 0x8EA8, size: 0x8, addend: 0x0, symName: __ZNK13DisplayAnimal14getDisplayTimeER4TimeS1_, symObjAddr: 0xA0C, symBinAddr: 0x1000032F4, symSize: 0x44 }
  - { offsetInCU: 0x8EEB, offset: 0x8EEB, size: 0x8, addend: 0x0, symName: __ZNK13DisplayAnimal5printEv, symObjAddr: 0xA50, symBinAddr: 0x100003338, symSize: 0x308 }
  - { offsetInCU: 0x8F12, offset: 0x8F12, size: 0x8, addend: 0x0, symName: __ZNSt3__113basic_ostreamIcNS_11char_traitsIcEEElsB7v160006EPFRS3_S4_E, symObjAddr: 0xD58, symBinAddr: 0x100003640, symSize: 0x2C }
  - { offsetInCU: 0x8F45, offset: 0x8F45, size: 0x8, addend: 0x0, symName: __Z11isValidTimeRK4Time, symObjAddr: 0xDDC, symBinAddr: 0x1000036C4, symSize: 0xD0 }
  - { offsetInCU: 0x8F71, offset: 0x8F71, size: 0x8, addend: 0x0, symName: __Z14isEndTimeLaterRK4TimeS1_, symObjAddr: 0xEAC, symBinAddr: 0x100003794, symSize: 0x12C }
  - { offsetInCU: 0x8FAC, offset: 0x8FAC, size: 0x8, addend: 0x0, symName: __ZN10ShowAnimalC2EiRK4DateRKNSt3__112basic_stringIcNS3_11char_traitsIcEENS3_9allocatorIcEEEE, symObjAddr: 0xFD8, symBinAddr: 0x1000038C0, symSize: 0xD4 }
  - { offsetInCU: 0x9001, offset: 0x9001, size: 0x8, addend: 0x0, symName: __ZN10ShowAnimalC1EiRK4DateRKNSt3__112basic_stringIcNS3_11char_traitsIcEENS3_9allocatorIcEEEE, symObjAddr: 0x10AC, symBinAddr: 0x100003994, symSize: 0x44 }
  - { offsetInCU: 0x9056, offset: 0x9056, size: 0x8, addend: 0x0, symName: __ZN10ShowAnimalC2ERKS_, symObjAddr: 0x10F0, symBinAddr: 0x1000039D8, symSize: 0x1AC }
  - { offsetInCU: 0x90AD, offset: 0x90AD, size: 0x8, addend: 0x0, symName: __ZN10ShowAnimalC1ERKS_, symObjAddr: 0x129C, symBinAddr: 0x100003B84, symSize: 0x34 }
  - { offsetInCU: 0x90E6, offset: 0x90E6, size: 0x8, addend: 0x0, symName: __ZN10ShowAnimalD2Ev, symObjAddr: 0x12D0, symBinAddr: 0x100003BB8, symSize: 0xD8 }
  - { offsetInCU: 0x912E, offset: 0x912E, size: 0x8, addend: 0x0, symName: __ZN10ShowAnimalD1Ev, symObjAddr: 0x13A8, symBinAddr: 0x100003C90, symSize: 0x2C }
  - { offsetInCU: 0x9159, offset: 0x9159, size: 0x8, addend: 0x0, symName: __ZN10ShowAnimalD0Ev, symObjAddr: 0x13D4, symBinAddr: 0x100003CBC, symSize: 0x58 }
  - { offsetInCU: 0x9184, offset: 0x9184, size: 0x8, addend: 0x0, symName: __ZN10ShowAnimalaSERKS_, symObjAddr: 0x142C, symBinAddr: 0x100003D14, symSize: 0x1C4 }
  - { offsetInCU: 0x91F3, offset: 0x91F3, size: 0x8, addend: 0x0, symName: __ZN10ShowAnimal11addShowDateERK4Date, symObjAddr: 0x15F0, symBinAddr: 0x100003ED8, symSize: 0x2D0 }
  - { offsetInCU: 0x9291, offset: 0x9291, size: 0x8, addend: 0x0, symName: __ZNK10ShowAnimal10getShowCntEv, symObjAddr: 0x18C0, symBinAddr: 0x1000041A8, symSize: 0x18 }
  - { offsetInCU: 0x92B9, offset: 0x92B9, size: 0x8, addend: 0x0, symName: __ZNK10ShowAnimal10getShowCntERK4DateS2_, symObjAddr: 0x18D8, symBinAddr: 0x1000041C0, symSize: 0x2EC }
  - { offsetInCU: 0x934A, offset: 0x934A, size: 0x8, addend: 0x0, symName: __ZNK10ShowAnimal5printEv, symObjAddr: 0x1BC4, symBinAddr: 0x1000044AC, symSize: 0x54 }
  - { offsetInCU: 0x9372, offset: 0x9372, size: 0x8, addend: 0x0, symName: __ZNK10ShowAnimal5printERK4DateS2_, symObjAddr: 0x1C18, symBinAddr: 0x100004500, symSize: 0x74 }
  - { offsetInCU: 0x93B8, offset: 0x93B8, size: 0x8, addend: 0x0, symName: __ZNK10ShowAnimal12isShowAnimalEv, symObjAddr: 0x1C8C, symBinAddr: 0x100004574, symSize: 0x18 }
  - { offsetInCU: 0x952C, offset: 0x952C, size: 0x8, addend: 0x0, symName: __ZN3ZooC2Ev, symObjAddr: 0x1CA4, symBinAddr: 0x10000458C, symSize: 0x70 }
  - { offsetInCU: 0x9576, offset: 0x9576, size: 0x8, addend: 0x0, symName: __ZN3ZooC1Ev, symObjAddr: 0x1D14, symBinAddr: 0x1000045FC, symSize: 0x2C }
  - { offsetInCU: 0x95A2, offset: 0x95A2, size: 0x8, addend: 0x0, symName: __ZN3ZooD2Ev, symObjAddr: 0x1D40, symBinAddr: 0x100004628, symSize: 0xAC }
  - { offsetInCU: 0x960A, offset: 0x960A, size: 0x8, addend: 0x0, symName: __ZN3ZooD1Ev, symObjAddr: 0x1DEC, symBinAddr: 0x1000046D4, symSize: 0x2C }
  - { offsetInCU: 0x9636, offset: 0x9636, size: 0x8, addend: 0x0, symName: __ZNK3Zoo19getDisplayAnimalCntEv, symObjAddr: 0x1E18, symBinAddr: 0x100004700, symSize: 0x18 }
  - { offsetInCU: 0x965E, offset: 0x965E, size: 0x8, addend: 0x0, symName: __ZNK3Zoo16getShowAnimalCntEv, symObjAddr: 0x1E30, symBinAddr: 0x100004718, symSize: 0x18 }
  - { offsetInCU: 0x9686, offset: 0x9686, size: 0x8, addend: 0x0, symName: __ZN3Zoo9addAnimalEPK6Animalb, symObjAddr: 0x1E48, symBinAddr: 0x100004730, symSize: 0x174 }
  - { offsetInCU: 0x96DB, offset: 0x96DB, size: 0x8, addend: 0x0, symName: __ZN3Zoo7setNameEiNSt3__112basic_stringIcNS0_11char_traitsIcEENS0_9allocatorIcEEEE, symObjAddr: 0x1FBC, symBinAddr: 0x1000048A4, symSize: 0xC0 }
  - { offsetInCU: 0x974F, offset: 0x974F, size: 0x8, addend: 0x0, symName: __ZN3Zoo14setDisplayTimeENSt3__112basic_stringIcNS0_11char_traitsIcEENS0_9allocatorIcEEEERK4TimeS9_, symObjAddr: 0x207C, symBinAddr: 0x100004964, symSize: 0x190 }
  - { offsetInCU: 0x97C9, offset: 0x97C9, size: 0x8, addend: 0x0, symName: __ZN3Zoo11addShowDateENSt3__112basic_stringIcNS0_11char_traitsIcEENS0_9allocatorIcEEEERK4Date, symObjAddr: 0x2354, symBinAddr: 0x100004C3C, symSize: 0x184 }
  - { offsetInCU: 0x9834, offset: 0x9834, size: 0x8, addend: 0x0, symName: __ZNK3Zoo5printEv, symObjAddr: 0x24D8, symBinAddr: 0x100004DC0, symSize: 0xA0 }
  - { offsetInCU: 0x9889, offset: 0x9889, size: 0x8, addend: 0x0, symName: __ZNK3Zoo22findMostBusyShowAnimalEv, symObjAddr: 0x2578, symBinAddr: 0x100004E60, symSize: 0x20C }
  - { offsetInCU: 0x9929, offset: 0x9929, size: 0x8, addend: 0x0, symName: _main, symObjAddr: 0x2784, symBinAddr: 0x10000506C, symSize: 0x67C }
  - { offsetInCU: 0x9AC4, offset: 0x9AC4, size: 0x8, addend: 0x0, symName: __ZNSt3__112basic_stringIcNS_11char_traitsIcEENS_9allocatorIcEEEC2B7v160006Ev, symObjAddr: 0x33D4, symBinAddr: 0x100005CBC, symSize: 0x44 }
  - { offsetInCU: 0x9AF3, offset: 0x9AF3, size: 0x8, addend: 0x0, symName: __ZNSt3__117__compressed_pairINS_12basic_stringIcNS_11char_traitsIcEENS_9allocatorIcEEE5__repES5_EC1B7v160006INS_18__default_init_tagESA_EEOT_OT0_, symObjAddr: 0x3418, symBinAddr: 0x100005D00, symSize: 0x3C }
  - { offsetInCU: 0x9B4B, offset: 0x9B4B, size: 0x8, addend: 0x0, symName: __ZNSt3__112basic_stringIcNS_11char_traitsIcEENS_9allocatorIcEEE14__default_initB7v160006Ev, symObjAddr: 0x3464, symBinAddr: 0x100005D4C, symSize: 0xB0 }
  - { offsetInCU: 0x9B9E, offset: 0x9B9E, size: 0x8, addend: 0x0, symName: __ZNSt3__117__compressed_pairINS_12basic_stringIcNS_11char_traitsIcEENS_9allocatorIcEEE5__repES5_EC2B7v160006INS_18__default_init_tagESA_EEOT_OT0_, symObjAddr: 0x3514, symBinAddr: 0x100005DFC, symSize: 0x3C }
  - { offsetInCU: 0x9BF6, offset: 0x9BF6, size: 0x8, addend: 0x0, symName: __ZNSt3__122__compressed_pair_elemINS_12basic_stringIcNS_11char_traitsIcEENS_9allocatorIcEEE5__repELi0ELb0EEC2B7v160006ENS_18__default_init_tagE, symObjAddr: 0x3550, symBinAddr: 0x100005E38, symSize: 0x14 }
  - { offsetInCU: 0x9C2B, offset: 0x9C2B, size: 0x8, addend: 0x0, symName: __ZNSt3__122__compressed_pair_elemINS_9allocatorIcEELi1ELb1EEC2B7v160006ENS_18__default_init_tagE, symObjAddr: 0x3564, symBinAddr: 0x100005E4C, symSize: 0x2C }
  - { offsetInCU: 0x9C60, offset: 0x9C60, size: 0x8, addend: 0x0, symName: __ZNSt3__19allocatorIcEC2B7v160006Ev, symObjAddr: 0x3590, symBinAddr: 0x100005E78, symSize: 0x2C }
  - { offsetInCU: 0x9C8A, offset: 0x9C8A, size: 0x8, addend: 0x0, symName: __ZNSt3__116__non_trivial_ifILb1ENS_9allocatorIcEEEC2B7v160006Ev, symObjAddr: 0x35BC, symBinAddr: 0x100005EA4, symSize: 0x14 }
  - { offsetInCU: 0x9CB4, offset: 0x9CB4, size: 0x8, addend: 0x0, symName: __ZNSt3__117__compressed_pairINS_12basic_stringIcNS_11char_traitsIcEENS_9allocatorIcEEE5__repES5_E5firstB7v160006Ev, symObjAddr: 0x35D0, symBinAddr: 0x100005EB8, symSize: 0x24 }
  - { offsetInCU: 0x9CDA, offset: 0x9CDA, size: 0x8, addend: 0x0, symName: __ZNSt3__112basic_stringIcNS_11char_traitsIcEENS_9allocatorIcEEE11__recommendB7v160006Em, symObjAddr: 0x3600, symBinAddr: 0x100005EE8, symSize: 0x9C }
  - { offsetInCU: 0x9D0D, offset: 0x9D0D, size: 0x8, addend: 0x0, symName: __ZNSt3__116allocator_traitsINS_9allocatorIcEEE8allocateB7v160006ERS2_m, symObjAddr: 0x369C, symBinAddr: 0x100005F84, symSize: 0x2C }
  - { offsetInCU: 0x9D40, offset: 0x9D40, size: 0x8, addend: 0x0, symName: __ZNSt3__112basic_stringIcNS_11char_traitsIcEENS_9allocatorIcEEE7__allocB7v160006Ev, symObjAddr: 0x36C8, symBinAddr: 0x100005FB0, symSize: 0x24 }
  - { offsetInCU: 0x9D66, offset: 0x9D66, size: 0x8, addend: 0x0, symName: __ZNSt3__112basic_stringIcNS_11char_traitsIcEENS_9allocatorIcEEE16__begin_lifetimeB7v160006EPcm, symObjAddr: 0x36EC, symBinAddr: 0x100005FD4, symSize: 0x14 }
  - { offsetInCU: 0x9D99, offset: 0x9D99, size: 0x8, addend: 0x0, symName: __ZNSt3__112basic_stringIcNS_11char_traitsIcEENS_9allocatorIcEEE18__set_long_pointerB7v160006EPc, symObjAddr: 0x3700, symBinAddr: 0x100005FE8, symSize: 0x38 }
  - { offsetInCU: 0x9DCE, offset: 0x9DCE, size: 0x8, addend: 0x0, symName: __ZNSt3__112basic_stringIcNS_11char_traitsIcEENS_9allocatorIcEEE14__set_long_capB7v160006Em, symObjAddr: 0x3738, symBinAddr: 0x100006020, symSize: 0x70 }
  - { offsetInCU: 0x9E03, offset: 0x9E03, size: 0x8, addend: 0x0, symName: __ZNSt3__112basic_stringIcNS_11char_traitsIcEENS_9allocatorIcEEE15__set_long_sizeB7v160006Em, symObjAddr: 0x37A8, symBinAddr: 0x100006090, symSize: 0x38 }
  - { offsetInCU: 0x9E38, offset: 0x9E38, size: 0x8, addend: 0x0, symName: __ZNSt3__122__compressed_pair_elemINS_12basic_stringIcNS_11char_traitsIcEENS_9allocatorIcEEE5__repELi0ELb0EE5__getB7v160006Ev, symObjAddr: 0x37E0, symBinAddr: 0x1000060C8, symSize: 0x14 }
  - { offsetInCU: 0x9E5E, offset: 0x9E5E, size: 0x8, addend: 0x0, symName: __ZNSt3__112basic_stringIcNS_11char_traitsIcEENS_9allocatorIcEEE10__align_itB7v160006ILm16EEEmm, symObjAddr: 0x37F4, symBinAddr: 0x1000060DC, symSize: 0x1C }
  - { offsetInCU: 0x9E8C, offset: 0x9E8C, size: 0x8, addend: 0x0, symName: __ZNSt3__19allocatorIcE8allocateB7v160006Em, symObjAddr: 0x3810, symBinAddr: 0x1000060F8, symSize: 0x84 }
  - { offsetInCU: 0x9ECA, offset: 0x9ECA, size: 0x8, addend: 0x0, symName: __ZNSt3__116allocator_traitsINS_9allocatorIcEEE8max_sizeB7v160006IS2_vEEmRKS2_, symObjAddr: 0x3894, symBinAddr: 0x10000617C, symSize: 0x24 }
  - { offsetInCU: 0x9EF8, offset: 0x9EF8, size: 0x8, addend: 0x0, symName: __ZNKSt3__19allocatorIcE8max_sizeB7v160006Ev, symObjAddr: 0x3914, symBinAddr: 0x1000061FC, symSize: 0x14 }
  - { offsetInCU: 0x9F1E, offset: 0x9F1E, size: 0x8, addend: 0x0, symName: __ZNSt3__117__compressed_pairINS_12basic_stringIcNS_11char_traitsIcEENS_9allocatorIcEEE5__repES5_E6secondB7v160006Ev, symObjAddr: 0x394C, symBinAddr: 0x100006234, symSize: 0x24 }
  - { offsetInCU: 0x9F44, offset: 0x9F44, size: 0x8, addend: 0x0, symName: __ZNSt3__122__compressed_pair_elemINS_9allocatorIcEELi1ELb1EE5__getB7v160006Ev, symObjAddr: 0x3970, symBinAddr: 0x100006258, symSize: 0x14 }
  - { offsetInCU: 0x9F6A, offset: 0x9F6A, size: 0x8, addend: 0x0, symName: __ZNKSt3__112basic_stringIcNS_11char_traitsIcEENS_9allocatorIcEEE4dataB7v160006Ev, symObjAddr: 0x3B78, symBinAddr: 0x100006460, symSize: 0x28 }
  - { offsetInCU: 0x9F90, offset: 0x9F90, size: 0x8, addend: 0x0, symName: __ZNKSt3__112basic_stringIcNS_11char_traitsIcEENS_9allocatorIcEEE4sizeB7v160006Ev, symObjAddr: 0x3BA0, symBinAddr: 0x100006488, symSize: 0x54 }
  - { offsetInCU: 0x9FD4, offset: 0x9FD4, size: 0x8, addend: 0x0, symName: __ZNKSt3__113basic_ostreamIcNS_11char_traitsIcEEE6sentrycvbB7v160006Ev, symObjAddr: 0x3BF4, symBinAddr: 0x1000064DC, symSize: 0x1C }
  - { offsetInCU: 0x9FFA, offset: 0x9FFA, size: 0x8, addend: 0x0, symName: __ZNSt3__119ostreambuf_iteratorIcNS_11char_traitsIcEEEC1B7v160006ERNS_13basic_ostreamIcS2_EE, symObjAddr: 0x3E58, symBinAddr: 0x100006740, symSize: 0x34 }
  - { offsetInCU: 0xA032, offset: 0xA032, size: 0x8, addend: 0x0, symName: __ZNKSt3__18ios_base5flagsB7v160006Ev, symObjAddr: 0x3E8C, symBinAddr: 0x100006774, symSize: 0x18 }
  - { offsetInCU: 0xA05A, offset: 0xA05A, size: 0x8, addend: 0x0, symName: __ZNKSt3__19basic_iosIcNS_11char_traitsIcEEE4fillB7v160006Ev, symObjAddr: 0x3EA4, symBinAddr: 0x10000678C, symSize: 0x64 }
  - { offsetInCU: 0xA082, offset: 0xA082, size: 0x8, addend: 0x0, symName: __ZNKSt3__119ostreambuf_iteratorIcNS_11char_traitsIcEEE6failedB7v160006Ev, symObjAddr: 0x3F08, symBinAddr: 0x1000067F0, symSize: 0x24 }
  - { offsetInCU: 0xA0A8, offset: 0xA0A8, size: 0x8, addend: 0x0, symName: __ZNSt3__19basic_iosIcNS_11char_traitsIcEEE8setstateB7v160006Ej, symObjAddr: 0x3F2C, symBinAddr: 0x100006814, symSize: 0x2C }
  - { offsetInCU: 0xA0DD, offset: 0xA0DD, size: 0x8, addend: 0x0, symName: __ZNKSt3__18ios_base5widthB7v160006Ev, symObjAddr: 0x3F58, symBinAddr: 0x100006840, symSize: 0x18 }
  - { offsetInCU: 0xA105, offset: 0xA105, size: 0x8, addend: 0x0, symName: __ZNSt3__115basic_streambufIcNS_11char_traitsIcEEE5sputnB7v160006EPKcl, symObjAddr: 0x3F70, symBinAddr: 0x100006858, symSize: 0x3C }
  - { offsetInCU: 0xA147, offset: 0xA147, size: 0x8, addend: 0x0, symName: __ZNSt3__112basic_stringIcNS_11char_traitsIcEENS_9allocatorIcEEEC1B7v160006Emc, symObjAddr: 0x3FAC, symBinAddr: 0x100006894, symSize: 0x3C }
  - { offsetInCU: 0xA18F, offset: 0xA18F, size: 0x8, addend: 0x0, symName: __ZNSt3__18ios_base5widthB7v160006El, symObjAddr: 0x3FE8, symBinAddr: 0x1000068D0, symSize: 0x2C }
  - { offsetInCU: 0xA1D5, offset: 0xA1D5, size: 0x8, addend: 0x0, symName: __ZNSt3__112basic_stringIcNS_11char_traitsIcEENS_9allocatorIcEEEC2B7v160006Emc, symObjAddr: 0x4014, symBinAddr: 0x1000068FC, symSize: 0x54 }
  - { offsetInCU: 0xA21D, offset: 0xA21D, size: 0x8, addend: 0x0, symName: __ZNSt3__119ostreambuf_iteratorIcNS_11char_traitsIcEEEC2B7v160006ERNS_13basic_ostreamIcS2_EE, symObjAddr: 0x4068, symBinAddr: 0x100006950, symSize: 0x68 }
  - { offsetInCU: 0xA255, offset: 0xA255, size: 0x8, addend: 0x0, symName: __ZNKSt3__19basic_iosIcNS_11char_traitsIcEEE5rdbufB7v160006Ev, symObjAddr: 0x40D0, symBinAddr: 0x1000069B8, symSize: 0x24 }
  - { offsetInCU: 0xA27D, offset: 0xA27D, size: 0x8, addend: 0x0, symName: __ZNKSt3__18ios_base5rdbufB7v160006Ev, symObjAddr: 0x40F4, symBinAddr: 0x1000069DC, symSize: 0x18 }
  - { offsetInCU: 0xA2A3, offset: 0xA2A3, size: 0x8, addend: 0x0, symName: __ZNSt3__111char_traitsIcE11eq_int_typeEii, symObjAddr: 0x410C, symBinAddr: 0x1000069F4, symSize: 0x28 }
  - { offsetInCU: 0xA2D4, offset: 0xA2D4, size: 0x8, addend: 0x0, symName: __ZNSt3__111char_traitsIcE3eofEv, symObjAddr: 0x4134, symBinAddr: 0x100006A1C, symSize: 0x8 }
  - { offsetInCU: 0xA2E8, offset: 0xA2E8, size: 0x8, addend: 0x0, symName: __ZNKSt3__19basic_iosIcNS_11char_traitsIcEEE5widenB7v160006Ec, symObjAddr: 0x413C, symBinAddr: 0x100006A24, symSize: 0x8C }
  - { offsetInCU: 0xA34C, offset: 0xA34C, size: 0x8, addend: 0x0, symName: __ZNKSt3__15ctypeIcE5widenB7v160006Ec, symObjAddr: 0x41F4, symBinAddr: 0x100006ADC, symSize: 0x38 }
  - { offsetInCU: 0xA381, offset: 0xA381, size: 0x8, addend: 0x0, symName: __ZNSt3__18ios_base8setstateB7v160006Ej, symObjAddr: 0x422C, symBinAddr: 0x100006B14, symSize: 0x34 }
  - { offsetInCU: 0xA3B8, offset: 0xA3B8, size: 0x8, addend: 0x0, symName: __ZNKSt3__112basic_stringIcNS_11char_traitsIcEENS_9allocatorIcEEE13__get_pointerB7v160006Ev, symObjAddr: 0x4274, symBinAddr: 0x100006B5C, symSize: 0x54 }
  - { offsetInCU: 0xA3DE, offset: 0xA3DE, size: 0x8, addend: 0x0, symName: __ZNKSt3__112basic_stringIcNS_11char_traitsIcEENS_9allocatorIcEEE9__is_longB7v160006Ev, symObjAddr: 0x42C8, symBinAddr: 0x100006BB0, symSize: 0x74 }
  - { offsetInCU: 0xA404, offset: 0xA404, size: 0x8, addend: 0x0, symName: __ZNKSt3__112basic_stringIcNS_11char_traitsIcEENS_9allocatorIcEEE18__get_long_pointerB7v160006Ev, symObjAddr: 0x433C, symBinAddr: 0x100006C24, symSize: 0x28 }
  - { offsetInCU: 0xA42A, offset: 0xA42A, size: 0x8, addend: 0x0, symName: __ZNKSt3__112basic_stringIcNS_11char_traitsIcEENS_9allocatorIcEEE19__get_short_pointerB7v160006Ev, symObjAddr: 0x4364, symBinAddr: 0x100006C4C, symSize: 0x28 }
  - { offsetInCU: 0xA450, offset: 0xA450, size: 0x8, addend: 0x0, symName: __ZNKSt3__117__compressed_pairINS_12basic_stringIcNS_11char_traitsIcEENS_9allocatorIcEEE5__repES5_E5firstB7v160006Ev, symObjAddr: 0x438C, symBinAddr: 0x100006C74, symSize: 0x24 }
  - { offsetInCU: 0xA476, offset: 0xA476, size: 0x8, addend: 0x0, symName: __ZNKSt3__122__compressed_pair_elemINS_12basic_stringIcNS_11char_traitsIcEENS_9allocatorIcEEE5__repELi0ELb0EE5__getB7v160006Ev, symObjAddr: 0x43B0, symBinAddr: 0x100006C98, symSize: 0x14 }
  - { offsetInCU: 0xA49C, offset: 0xA49C, size: 0x8, addend: 0x0, symName: __ZNSt3__114pointer_traitsIPKcE10pointer_toB7v160006ERS1_, symObjAddr: 0x43C4, symBinAddr: 0x100006CAC, symSize: 0x14 }
  - { offsetInCU: 0xA4BF, offset: 0xA4BF, size: 0x8, addend: 0x0, symName: __ZNKSt3__112basic_stringIcNS_11char_traitsIcEENS_9allocatorIcEEE15__get_long_sizeB7v160006Ev, symObjAddr: 0x43D8, symBinAddr: 0x100006CC0, symSize: 0x28 }
  - { offsetInCU: 0xA4E5, offset: 0xA4E5, size: 0x8, addend: 0x0, symName: __ZNKSt3__112basic_stringIcNS_11char_traitsIcEENS_9allocatorIcEEE16__get_short_sizeB7v160006Ev, symObjAddr: 0x4400, symBinAddr: 0x100006CE8, symSize: 0x34 }
  - { offsetInCU: 0xA50B, offset: 0xA50B, size: 0x8, addend: 0x0, symName: __ZNSt3__111char_traitsIcE6lengthEPKc, symObjAddr: 0x4434, symBinAddr: 0x100006D1C, symSize: 0x48 }
  - { offsetInCU: 0xA52E, offset: 0xA52E, size: 0x8, addend: 0x0, symName: __ZNSt3__111char_traitsIcE7compareEPKcS3_m, symObjAddr: 0x44A0, symBinAddr: 0x100006D88, symSize: 0x80 }
  - { offsetInCU: 0xA5FF, offset: 0xA5FF, size: 0x8, addend: 0x0, symName: __ZNKSt3__113basic_istreamIcNS_11char_traitsIcEEE6sentrycvbB7v160006Ev, symObjAddr: 0x4554, symBinAddr: 0x100006E3C, symSize: 0x1C }
  - { offsetInCU: 0xA625, offset: 0xA625, size: 0x8, addend: 0x0, symName: __ZNSt3__115basic_streambufIcNS_11char_traitsIcEEE6sbumpcB7v160006Ev, symObjAddr: 0x4570, symBinAddr: 0x100006E58, symSize: 0x78 }
  - { offsetInCU: 0xA64B, offset: 0xA64B, size: 0x8, addend: 0x0, symName: __ZNSt3__111char_traitsIcE12to_char_typeEi, symObjAddr: 0x45E8, symBinAddr: 0x100006ED0, symSize: 0x18 }
  - { offsetInCU: 0xA66E, offset: 0xA66E, size: 0x8, addend: 0x0, symName: __ZNSt3__18ios_base18__setstate_nothrowB7v160006Ej, symObjAddr: 0x4600, symBinAddr: 0x100006EE8, symSize: 0x64 }
  - { offsetInCU: 0xA6A3, offset: 0xA6A3, size: 0x8, addend: 0x0, symName: __ZNKSt3__19basic_iosIcNS_11char_traitsIcEEE10exceptionsB7v160006Ev, symObjAddr: 0x4664, symBinAddr: 0x100006F4C, symSize: 0x24 }
  - { offsetInCU: 0xA6C9, offset: 0xA6C9, size: 0x8, addend: 0x0, symName: __ZNSt3__111char_traitsIcE11to_int_typeEc, symObjAddr: 0x4688, symBinAddr: 0x100006F70, symSize: 0x14 }
  - { offsetInCU: 0xA6EC, offset: 0xA6EC, size: 0x8, addend: 0x0, symName: __ZNKSt3__18ios_base10exceptionsB7v160006Ev, symObjAddr: 0x469C, symBinAddr: 0x100006F84, symSize: 0x18 }
  - { offsetInCU: 0xA714, offset: 0xA714, size: 0x8, addend: 0x0, symName: __ZNSt3__112basic_stringIcNS_11char_traitsIcEENS_9allocatorIcEEE5clearB7v160006Ev, symObjAddr: 0x46B4, symBinAddr: 0x100006F9C, symSize: 0x9C }
  - { offsetInCU: 0xA73C, offset: 0xA73C, size: 0x8, addend: 0x0, symName: __ZNKSt3__112basic_stringIcNS_11char_traitsIcEENS_9allocatorIcEEE8max_sizeB7v160006Ev, symObjAddr: 0x4750, symBinAddr: 0x100007038, symSize: 0xAC }
  - { offsetInCU: 0xA78F, offset: 0xA78F, size: 0x8, addend: 0x0, symName: __ZNSt3__114numeric_limitsIlE3maxB7v160006Ev, symObjAddr: 0x47FC, symBinAddr: 0x1000070E4, symSize: 0x14 }
  - { offsetInCU: 0xA7A3, offset: 0xA7A3, size: 0x8, addend: 0x0, symName: __ZNSt3__115basic_streambufIcNS_11char_traitsIcEEE5sgetcB7v160006Ev, symObjAddr: 0x4810, symBinAddr: 0x1000070F8, symSize: 0x70 }
  - { offsetInCU: 0xA7C9, offset: 0xA7C9, size: 0x8, addend: 0x0, symName: __ZNKSt3__15ctypeIcE2isB7v160006Ejc, symObjAddr: 0x4880, symBinAddr: 0x100007168, symSize: 0x7C }
  - { offsetInCU: 0xA80D, offset: 0xA80D, size: 0x8, addend: 0x0, symName: __ZNSt3__111char_traitsIcE6assignERcRKc, symObjAddr: 0x490C, symBinAddr: 0x1000071F4, symSize: 0x24 }
  - { offsetInCU: 0xA83E, offset: 0xA83E, size: 0x8, addend: 0x0, symName: __ZNSt3__112basic_stringIcNS_11char_traitsIcEENS_9allocatorIcEEE18__get_long_pointerB7v160006Ev, symObjAddr: 0x4930, symBinAddr: 0x100007218, symSize: 0x28 }
  - { offsetInCU: 0xA864, offset: 0xA864, size: 0x8, addend: 0x0, symName: __ZNSt3__112basic_stringIcNS_11char_traitsIcEENS_9allocatorIcEEE19__get_short_pointerB7v160006Ev, symObjAddr: 0x4958, symBinAddr: 0x100007240, symSize: 0x28 }
  - { offsetInCU: 0xA88A, offset: 0xA88A, size: 0x8, addend: 0x0, symName: __ZNSt3__112basic_stringIcNS_11char_traitsIcEENS_9allocatorIcEEE16__set_short_sizeB7v160006Em, symObjAddr: 0x4980, symBinAddr: 0x100007268, symSize: 0x78 }
  - { offsetInCU: 0xA8BF, offset: 0xA8BF, size: 0x8, addend: 0x0, symName: __ZNSt3__114pointer_traitsIPcE10pointer_toB7v160006ERc, symObjAddr: 0x49F8, symBinAddr: 0x1000072E0, symSize: 0x14 }
  - { offsetInCU: 0xA8E2, offset: 0xA8E2, size: 0x8, addend: 0x0, symName: __ZNKSt3__112basic_stringIcNS_11char_traitsIcEENS_9allocatorIcEEE7__allocB7v160006Ev, symObjAddr: 0x4A0C, symBinAddr: 0x1000072F4, symSize: 0x24 }
  - { offsetInCU: 0xA908, offset: 0xA908, size: 0x8, addend: 0x0, symName: __ZNSt3__114numeric_limitsImE3maxB7v160006Ev, symObjAddr: 0x4A30, symBinAddr: 0x100007318, symSize: 0x14 }
  - { offsetInCU: 0xA91C, offset: 0xA91C, size: 0x8, addend: 0x0, symName: __ZNKSt3__117__compressed_pairINS_12basic_stringIcNS_11char_traitsIcEENS_9allocatorIcEEE5__repES5_E6secondB7v160006Ev, symObjAddr: 0x4A44, symBinAddr: 0x10000732C, symSize: 0x24 }
  - { offsetInCU: 0xA942, offset: 0xA942, size: 0x8, addend: 0x0, symName: __ZNKSt3__122__compressed_pair_elemINS_9allocatorIcEELi1ELb1EE5__getB7v160006Ev, symObjAddr: 0x4A68, symBinAddr: 0x100007350, symSize: 0x14 }
  - { offsetInCU: 0xA968, offset: 0xA968, size: 0x8, addend: 0x0, symName: __ZNSt3__123__libcpp_numeric_limitsImLb1EE3maxB7v160006Ev, symObjAddr: 0x4A7C, symBinAddr: 0x100007364, symSize: 0x8 }
  - { offsetInCU: 0xA97C, offset: 0xA97C, size: 0x8, addend: 0x0, symName: __ZNSt3__123__libcpp_numeric_limitsIlLb1EE3maxB7v160006Ev, symObjAddr: 0x4A84, symBinAddr: 0x10000736C, symSize: 0x8 }
  - { offsetInCU: 0xA98F, offset: 0xA98F, size: 0x8, addend: 0x0, symName: __Z7isasciii, symObjAddr: 0x4A8C, symBinAddr: 0x100007374, symSize: 0x24 }
...
